target datalayout = "e-m:e-p270:32:32-p271:32:32-p272:64:64-i64:64-i128:128-f80:128-n8:16:32:64-S128"
target triple = "x86_64-pc-linux-gnu"

%struct.malloc_mutex_s = type { %union.anon }
%union.anon = type { %struct.anon }
%struct.anon = type { %struct.mutex_prof_data_t, %struct.atomic_b_t, %union.pthread_mutex_t }
%struct.mutex_prof_data_t = type { %struct.nstime_t, %struct.nstime_t, i64, i64, i32, %struct.atomic_u32_t, i64, ptr, i64 }
%struct.nstime_t = type { i64 }
%struct.atomic_u32_t = type { i32 }
%struct.atomic_b_t = type { i8 }
%union.pthread_mutex_t = type { %struct.__pthread_mutex_s }
%struct.__pthread_mutex_s = type { i32, i32, i32, i32, i32, i16, i16, %struct.__pthread_internal_list }
%struct.__pthread_internal_list = type { ptr, ptr }

@ctl_initialized = internal global i8 0, align 1
@ctl_mtx = internal global %struct.malloc_mutex_s zeroinitializer, align 8
@.str = private unnamed_addr constant [4 x i8] c"ctl\00", align 1

; Function Attrs: nounwind uwtable
define hidden zeroext i1 @je_ctl_boot() #0 {
  %1 = alloca i1, align 1
  %2 = call zeroext i1 @je_malloc_mutex_init(ptr noundef @ctl_mtx, ptr noundef @.str, i32 noundef 2, i32 noundef 0)
  br i1 %2, label %3, label %4

3:                                                ; preds = %0
  store i1 true, ptr %1, align 1
  br label %5

4:                                                ; preds = %0
  store i8 0, ptr @ctl_initialized, align 1, !tbaa !16
  store i1 false, ptr %1, align 1
  br label %5

5:                                                ; preds = %4, %3
  %6 = load i1, ptr %1, align 1
  ret i1 %6
}