; Function Attrs: nounwind uwtable
define hidden noundef zeroext i1 @je_ctl_boot() local_unnamed_addr #0 {
  %1 = tail call zeroext i1 @je_malloc_mutex_init(ptr noundef nonnull @ctl_mtx, ptr noundef nonnull @.str, i32 noundef 2, i32 noundef 0) #15
  br i1 %1, label %3, label %2

2:                                                ; preds = %0
  store i1 false, ptr @ctl_initialized, align 1
  br label %3

3:                                                ; preds = %0, %2
  ret i1 %1
}